; Function Attrs: nounwind uwtable
define hidden void @zim_SimpleXMLElement_attributes(ptr nocapture noundef readonly %0, ptr nocapture noundef writeonly %1) #1 {
  %3 = alloca ptr, align 8
  %4 = alloca i64, align 8
  %5 = alloca i8, align 1
  store ptr null, ptr %3, align 8
  store i64 0, ptr %4, align 8
  store i8 0, ptr %5, align 1
  %6 = getelementptr inbounds i8, ptr %0, i64 44
  %7 = load i32, ptr %6, align 4
  %8 = call i32 (i32, ptr, ...) @zend_parse_parameters(i32 noundef %7, ptr noundef nonnull @.str.6, ptr noundef nonnull %3, ptr noundef nonnull %4, ptr noundef nonnull %5) #14
  %9 = icmp eq i32 %8, -1
  br i1 %9, label %10, label %13

10:                                               ; preds = %2
  %11 = load ptr, ptr getelementptr inbounds (%struct._zend_executor_globals, ptr @executor_globals, i64 0, i32 50), align 8
  %12 = icmp ne ptr %11, null
  call void @llvm.assume(i1 %12)
  br label %43

13:                                               ; preds = %2
  %14 = getelementptr inbounds i8, ptr %0, i64 32
  %15 = load ptr, ptr %14, align 8
  %16 = getelementptr inbounds i8, ptr %15, i64 -96
  %17 = load ptr, ptr %16, align 8
  %.not = icmp eq ptr %17, null
  br i1 %.not, label %20, label %18

18:                                               ; preds = %13
  %19 = load ptr, ptr %17, align 8
  %.not15 = icmp eq ptr %19, null
  br i1 %.not15, label %20, label %21

20:                                               ; preds = %18, %13
  call void (ptr, ptr, ...) @zend_throw_error(ptr noundef null, ptr noundef nonnull @.str.1) #14
  br label %21

21:                                               ; preds = %18, %20
  %.0 = phi ptr [ null, %20 ], [ %19, %18 ]
  %22 = getelementptr inbounds i8, ptr %15, i64 -44
  %23 = load i32, ptr %22, align 4
  %.not6.i = icmp eq i32 %23, 0
  br i1 %.not6.i, label %php_sxe_get_first_node_non_destructive.exit, label %24

24:                                               ; preds = %21
  %25 = load ptr, ptr %16, align 8
  %.not.i.i = icmp eq ptr %25, null
  br i1 %.not.i.i, label %php_sxe_get_first_node_non_destructive.exit.thread, label %26

26:                                               ; preds = %24
  %27 = load ptr, ptr %25, align 8
  %.not14.i.i = icmp eq ptr %27, null
  br i1 %.not14.i.i, label %php_sxe_get_first_node_non_destructive.exit.thread, label %28

php_sxe_get_first_node_non_destructive.exit.thread: ; preds = %24, %26
  call void (ptr, ptr, ...) @zend_throw_error(ptr noundef null, ptr noundef nonnull @.str.1) #14
  br label %43

28:                                               ; preds = %26
  %29 = icmp ult i32 %23, 4
  br i1 %29, label %switch.lookup, label %33

switch.lookup:                                    ; preds = %28
  %switch.tableidx = add nsw i32 %23, -1
  %30 = sext i32 %switch.tableidx to i64
  %switch.gep = getelementptr inbounds [3 x i64], ptr @switch.table.sxe_get_prop_hash, i64 0, i64 %30
  %switch.load = load i64, ptr %switch.gep, align 8
  %31 = getelementptr inbounds i8, ptr %27, i64 %switch.load
  %32 = load ptr, ptr %31, align 8
  br label %33

33:                                               ; preds = %28, %switch.lookup
  %.1.i.i = phi ptr [ %27, %28 ], [ %32, %switch.lookup ]
  %34 = call fastcc ptr @php_sxe_iterator_fetch(ptr noundef nonnull %16, ptr noundef %.1.i.i, i32 noundef 0)
  br label %php_sxe_get_first_node_non_destructive.exit

php_sxe_get_first_node_non_destructive.exit:      ; preds = %21, %33
  %.0.i = phi ptr [ %.0, %21 ], [ %34, %33 ]
  %.not16 = icmp eq ptr %.0.i, null
  br i1 %.not16, label %43, label %35

35:                                               ; preds = %php_sxe_get_first_node_non_destructive.exit
  %36 = load i32, ptr %22, align 4
  %37 = icmp eq i32 %36, 3
  br i1 %37, label %43, label %38

38:                                               ; preds = %35
  %39 = load ptr, ptr %3, align 8
  %40 = load i8, ptr %5, align 1
  %41 = and i8 %40, 1
  %42 = zext nneg i8 %41 to i32
  call fastcc void @_node_as_zval(ptr noundef nonnull %16, ptr noundef nonnull %.0.i, ptr noundef %1, i32 noundef 3, ptr noundef null, ptr noundef %39, i32 noundef %42)
  br label %43

43:                                               ; preds = %php_sxe_get_first_node_non_destructive.exit.thread, %35, %php_sxe_get_first_node_non_destructive.exit, %38, %10
  ret void
}